target datalayout = "e-m:e-p270:32:32-p271:32:32-p272:64:64-i64:64-i128:128-f80:128-n8:16:32:64-S128"
target triple = "x86_64-pc-linux-gnu"

%struct.codepage_entry = type { i16, ptr }

@.str.3 = private unnamed_addr constant [37 x i8] c"cli_codepage_to_utf8: Invalid args.\0A\00", align 1
@.str.4 = private unnamed_addr constant [68 x i8] c"cli_codepage_to_utf8: Failure allocating buffer for utf8 filename.\0A\00", align 1
@.str.5 = private unnamed_addr constant [87 x i8] c"cli_codepage_to_utf8: cleaning out %d bytes from incomplete utf-8 character length %d\0A\00", align 1
@.str.6 = private unnamed_addr constant [61 x i8] c"cli_codepage_to_utf8: Invalid codepage parameter passed in.\0A\00", align 1
@.str.7 = private unnamed_addr constant [64 x i8] c"cli_codepage_to_utf8: Failure allocating buffer for utf8 data.\0A\00", align 1
@.str.8 = private unnamed_addr constant [16 x i8] c"UTF-8//TRANSLIT\00", align 1
@.str.9 = private unnamed_addr constant [6 x i8] c"UTF-8\00", align 1
@.str.10 = private unnamed_addr constant [45 x i8] c"cli_codepage_to_utf8: Failed to open iconv.\0A\00", align 1
@.str.11 = private unnamed_addr constant [77 x i8] c"cli_codepage_to_utf8: iconv error: There is not sufficient room at *outbuf.\0A\00", align 1
@.str.12 = private unnamed_addr constant [101 x i8] c"cli_codepage_to_utf8: iconv error: An invalid multibyte sequence has been encountered in the input.\0A\00", align 1
@.str.13 = private unnamed_addr constant [104 x i8] c"cli_codepage_to_utf8: iconv error: An incomplete multibyte sequence has been encountered in the input.\0A\00", align 1
@.str.14 = private unnamed_addr constant [62 x i8] c"cli_codepage_to_utf8: iconv error: Unexpected error code %d.\0A\00", align 1
@.str.15 = private unnamed_addr constant [71 x i8] c"cli_codepage_to_utf8: failure cli_max_realloc'ing converted filename.\0A\00", align 1

; Function Attrs: nounwind uwtable
define i32 @cli_codepage_to_utf8(ptr noundef %0, i64 noundef %1, i16 noundef zeroext %2, ptr noundef %3, ptr noundef %4) #0 {
  %6 = alloca ptr, align 8
  %7 = alloca i64, align 8
  %8 = alloca i16, align 2
  %9 = alloca ptr, align 8
  %10 = alloca ptr, align 8
  %11 = alloca i32, align 4
  %12 = alloca ptr, align 8
  %13 = alloca i64, align 8
  %14 = alloca ptr, align 8
  %15 = alloca ptr, align 8
  %16 = alloca i32, align 4
  %17 = alloca i32, align 4
  %18 = alloca i32, align 4
  %19 = alloca i32, align 4
  %20 = alloca ptr, align 8
  %21 = alloca ptr, align 8
  %22 = alloca i64, align 8
  %23 = alloca i64, align 8
  %24 = alloca i64, align 8
  %25 = alloca ptr, align 8
  %26 = alloca ptr, align 8
  store ptr %0, ptr %6, align 8
  store i64 %1, ptr %7, align 8
  store i16 %2, ptr %8, align 2
  store ptr %3, ptr %9, align 8
  store ptr %4, ptr %10, align 8
  store i32 22, ptr %11, align 4
  store ptr null, ptr %12, align 8
  store i64 0, ptr %13, align 8
  store ptr inttoptr (i64 -1 to ptr), ptr %14, align 8
  %27 = load ptr, ptr %6, align 8
  %28 = icmp eq ptr null, %27
  br i1 %28, label %38, label %29

29:                                               ; preds = %5
  %30 = load i64, ptr %7, align 8
  %31 = icmp eq i64 %30, 0
  br i1 %31, label %38, label %32

32:                                               ; preds = %29
  %33 = load ptr, ptr %9, align 8
  %34 = icmp eq ptr null, %33
  br i1 %34, label %38, label %35

35:                                               ; preds = %32
  %36 = load ptr, ptr %10, align 8
  %37 = icmp eq ptr null, %36
  br i1 %37, label %38, label %39

38:                                               ; preds = %35, %32, %29, %5
  call void (ptr, ...) @cli_dbgmsg(ptr noundef @.str.3)
  store i32 3, ptr %11, align 4
  br label %239

39:                                               ; preds = %35
  %40 = load ptr, ptr %9, align 8
  store ptr null, ptr %40, align 8
  %41 = load ptr, ptr %10, align 8
  store i64 0, ptr %41, align 8
  %42 = load i16, ptr %8, align 2
  %43 = zext i16 %42 to i32
  switch i32 %43, label %124 [
    i32 20127, label %44
    i32 65001, label %44
  ]

44:                                               ; preds = %39, %39
  %45 = load i64, ptr %7, align 8
  store i64 %45, ptr %13, align 8
  %46 = load i64, ptr %13, align 8
  %47 = add i64 %46, 1
  %48 = call ptr @cli_max_calloc(i64 noundef 1, i64 noundef %47)
  store ptr %48, ptr %12, align 8
  %49 = load ptr, ptr %12, align 8
  %50 = icmp eq ptr null, %49
  br i1 %50, label %51, label %52

51:                                               ; preds = %44
  call void (ptr, ...) @cli_errmsg(ptr noundef @.str.4)
  store i32 20, ptr %11, align 4
  br label %239

52:                                               ; preds = %44
  %53 = load ptr, ptr %12, align 8
  %54 = load ptr, ptr %6, align 8
  %55 = load i64, ptr %7, align 8
  call void @llvm.memcpy.p0.p0.i64(ptr align 1 %53, ptr align 1 %54, i64 %55, i1 false)
  %56 = load ptr, ptr %12, align 8
  %57 = load i64, ptr %7, align 8
  %58 = getelementptr inbounds i8, ptr %56, i64 %57
  %59 = getelementptr inbounds i8, ptr %58, i64 -1
  store ptr %59, ptr %15, align 8
  %60 = load i16, ptr %8, align 2
  %61 = zext i16 %60 to i32
  %62 = icmp eq i32 %61, 65001
  br i1 %62, label %63, label %123

63:                                               ; preds = %52
  %64 = load ptr, ptr %15, align 8
  %65 = load i8, ptr %64, align 1
  %66 = sext i8 %65 to i32
  %67 = and i32 %66, 128
  %68 = icmp ne i32 %67, 0
  br i1 %68, label %69, label %123

69:                                               ; preds = %63
  store i32 1, ptr %16, align 4
  br label %70

70:                                               ; preds = %82, %69
  %71 = load ptr, ptr %15, align 8
  %72 = load ptr, ptr %12, align 8
  %73 = icmp ne ptr %71, %72
  br i1 %73, label %74, label %87

74:                                               ; preds = %70
  %75 = load ptr, ptr %15, align 8
  %76 = load i8, ptr %75, align 1
  %77 = zext i8 %76 to i32
  %78 = and i32 %77, 192
  %79 = icmp ne i32 %78, 128
  br i1 %79, label %80, label %81

80:                                               ; preds = %74
  br label %87

81:                                               ; preds = %74
  br label %82

82:                                               ; preds = %81
  %83 = load ptr, ptr %15, align 8
  %84 = getelementptr inbounds i8, ptr %83, i32 -1
  store ptr %84, ptr %15, align 8
  %85 = load i32, ptr %16, align 4
  %86 = add nsw i32 %85, 1
  store i32 %86, ptr %16, align 4
  br label %70

87:                                               ; preds = %80, %70
  store i32 0, ptr %17, align 4
  br label %88

88:                                               ; preds = %101, %87
  %89 = load i32, ptr %17, align 4
  %90 = icmp slt i32 %89, 8
  br i1 %90, label %91, label %104

91:                                               ; preds = %88
  %92 = load ptr, ptr %15, align 8
  %93 = load i8, ptr %92, align 1
  %94 = zext i8 %93 to i32
  %95 = load i32, ptr %17, align 4
  %96 = ashr i32 128, %95
  %97 = and i32 %94, %96
  %98 = icmp eq i32 %97, 0
  br i1 %98, label %99, label %100

99:                                               ; preds = %91
  br label %104

100:                                              ; preds = %91
  br label %101

101:                                              ; preds = %100
  %102 = load i32, ptr %17, align 4
  %103 = add nsw i32 %102, 1
  store i32 %103, ptr %17, align 4
  br label %88

104:                                              ; preds = %99, %88
  %105 = load i32, ptr %16, align 4
  %106 = load i32, ptr %17, align 4
  %107 = icmp ne i32 %105, %106
  br i1 %107, label %108, label %122

108:                                              ; preds = %104
  %109 = load i32, ptr %16, align 4
  %110 = load i32, ptr %17, align 4
  call void (ptr, ...) @cli_dbgmsg(ptr noundef @.str.5, i32 noundef %109, i32 noundef %110)
  br label %111

111:                                              ; preds = %116, %108
  %112 = load i32, ptr %16, align 4
  %113 = icmp sgt i32 %112, 0
  br i1 %113, label %114, label %121

114:                                              ; preds = %111
  %115 = load ptr, ptr %15, align 8
  store i8 0, ptr %115, align 1
  br label %116

116:                                              ; preds = %114
  %117 = load i32, ptr %16, align 4
  %118 = add nsw i32 %117, -1
  store i32 %118, ptr %16, align 4
  %119 = load ptr, ptr %15, align 8
  %120 = getelementptr inbounds i8, ptr %119, i32 1
  store ptr %120, ptr %15, align 8
  br label %111

121:                                              ; preds = %111
  br label %122

122:                                              ; preds = %121, %104
  br label %123

123:                                              ; preds = %122, %63, %52
  br label %234

124:                                              ; preds = %39
  store ptr null, ptr %20, align 8
  store i32 0, ptr %19, align 4
  br label %125

125:                                              ; preds = %158, %124
  %126 = load i32, ptr %19, align 4
  %127 = zext i32 %126 to i64
  %128 = icmp ult i64 %127, 152
  br i1 %128, label %129, label %161

129:                                              ; preds = %125
  %130 = load i16, ptr %8, align 2
  %131 = zext i16 %130 to i32
  %132 = load i32, ptr %19, align 4
  %133 = zext i32 %132 to i64
  %134 = getelementptr inbounds [152 x %struct.codepage_entry], ptr @codepage_entries, i64 0, i64 %133
  %135 = getelementptr inbounds %struct.codepage_entry, ptr %134, i32 0, i32 0
  %136 = load i16, ptr %135, align 16
  %137 = zext i16 %136 to i32
  %138 = icmp eq i32 %131, %137
  br i1 %138, label %139, label %145

139:                                              ; preds = %129
  %140 = load i32, ptr %19, align 4
  %141 = zext i32 %140 to i64
  %142 = getelementptr inbounds [152 x %struct.codepage_entry], ptr @codepage_entries, i64 0, i64 %141
  %143 = getelementptr inbounds %struct.codepage_entry, ptr %142, i32 0, i32 1
  %144 = load ptr, ptr %143, align 8
  store ptr %144, ptr %20, align 8
  br label %161

145:                                              ; preds = %129
  %146 = load i16, ptr %8, align 2
  %147 = zext i16 %146 to i32
  %148 = load i32, ptr %19, align 4
  %149 = zext i32 %148 to i64
  %150 = getelementptr inbounds [152 x %struct.codepage_entry], ptr @codepage_entries, i64 0, i64 %149
  %151 = getelementptr inbounds %struct.codepage_entry, ptr %150, i32 0, i32 0
  %152 = load i16, ptr %151, align 16
  %153 = zext i16 %152 to i32
  %154 = icmp slt i32 %147, %153
  br i1 %154, label %155, label %156

155:                                              ; preds = %145
  br label %161

156:                                              ; preds = %145
  br label %157

157:                                              ; preds = %156
  br label %158

158:                                              ; preds = %157
  %159 = load i32, ptr %19, align 4
  %160 = add i32 %159, 1
  store i32 %160, ptr %19, align 4
  br label %125

161:                                              ; preds = %155, %139, %125
  %162 = load ptr, ptr %20, align 8
  %163 = icmp eq ptr null, %162
  br i1 %163, label %164, label %165

164:                                              ; preds = %161
  call void (ptr, ...) @cli_dbgmsg(ptr noundef @.str.6)
  br label %239

165:                                              ; preds = %161
  store i32 1, ptr %18, align 4
  br label %166

166:                                              ; preds = %230, %165
  %167 = load i32, ptr %18, align 4
  %168 = icmp ule i32 %167, 3
  br i1 %168, label %169, label %233

169:                                              ; preds = %166
  %170 = load ptr, ptr %6, align 8
  store ptr %170, ptr %21, align 8
  %171 = load i64, ptr %7, align 8
  store i64 %171, ptr %22, align 8
  store i64 -1, ptr %23, align 8
  store i64 0, ptr %24, align 8
  store ptr null, ptr %25, align 8
  store ptr null, ptr %26, align 8
  %172 = load i64, ptr %7, align 8
  %173 = mul i64 %172, 2
  %174 = load i32, ptr %18, align 4
  %175 = zext i32 %174 to i64
  %176 = mul i64 %173, %175
  store i64 %176, ptr %13, align 8
  %177 = load i64, ptr %13, align 8
  store i64 %177, ptr %24, align 8
  %178 = load i64, ptr %13, align 8
  %179 = add i64 %178, 1
  %180 = call ptr @cli_max_calloc(i64 noundef 1, i64 noundef %179)
  store ptr %180, ptr %12, align 8
  %181 = load ptr, ptr %12, align 8
  %182 = icmp eq ptr null, %181
  br i1 %182, label %183, label %184

183:                                              ; preds = %169
  call void (ptr, ...) @cli_errmsg(ptr noundef @.str.7)
  store i32 20, ptr %11, align 4
  br label %239

184:                                              ; preds = %169
  %185 = load ptr, ptr %12, align 8
  store ptr %185, ptr %26, align 8
  %186 = load ptr, ptr %20, align 8
  %187 = call ptr @iconv_open(ptr noundef @.str.8, ptr noundef %186)
  store ptr %187, ptr %14, align 8
  %188 = load ptr, ptr %14, align 8
  %189 = icmp eq ptr %188, inttoptr (i64 -1 to ptr)
  br i1 %189, label %190, label %197

190:                                              ; preds = %184
  %191 = load ptr, ptr %20, align 8
  %192 = call ptr @iconv_open(ptr noundef @.str.9, ptr noundef %191)
  store ptr %192, ptr %14, align 8
  %193 = load ptr, ptr %14, align 8
  %194 = icmp eq ptr %193, inttoptr (i64 -1 to ptr)
  br i1 %194, label %195, label %196

195:                                              ; preds = %190
  call void (ptr, ...) @cli_warnmsg(ptr noundef @.str.10)
  br label %239

196:                                              ; preds = %190
  br label %197

197:                                              ; preds = %196, %184
  %198 = load ptr, ptr %14, align 8
  %199 = call i64 @iconv(ptr noundef %198, ptr noundef %21, ptr noundef %22, ptr noundef %26, ptr noundef %24)
  store i64 %199, ptr %23, align 8
  %200 = load ptr, ptr %14, align 8
  %201 = call i32 @iconv_close(ptr noundef %200)
  store ptr inttoptr (i64 -1 to ptr), ptr %14, align 8
  %202 = load i64, ptr %23, align 8
  %203 = icmp eq i64 -1, %202
  br i1 %203, label %204, label %215

204:                                              ; preds = %197
  %205 = call ptr @__errno_location() #12
  %206 = load i32, ptr %205, align 4
  switch i32 %206, label %211 [
    i32 7, label %207
    i32 84, label %209
    i32 22, label %210
  ]

207:                                              ; preds = %204
  call void (ptr, ...) @cli_warnmsg(ptr noundef @.str.11)
  %208 = load ptr, ptr %12, align 8
  call void @free(ptr noundef %208) #11
  store ptr null, ptr %12, align 8
  br label %230

209:                                              ; preds = %204
  call void (ptr, ...) @cli_warnmsg(ptr noundef @.str.12)
  br label %214

210:                                              ; preds = %204
  call void (ptr, ...) @cli_dbgmsg(ptr noundef @.str.13)
  br label %214

211:                                              ; preds = %204
  %212 = call ptr @__errno_location() #12
  %213 = load i32, ptr %212, align 4
  call void (ptr, ...) @cli_warnmsg(ptr noundef @.str.14, i32 noundef %213)
  br label %214

214:                                              ; preds = %211, %210, %209
  store i32 27, ptr %11, align 4
  br label %239

215:                                              ; preds = %197
  %216 = load ptr, ptr %12, align 8
  %217 = load i64, ptr %13, align 8
  %218 = load i64, ptr %24, align 8
  %219 = sub i64 %217, %218
  %220 = add i64 %219, 1
  %221 = call ptr @cli_max_realloc(ptr noundef %216, i64 noundef %220)
  store ptr %221, ptr %25, align 8
  %222 = load ptr, ptr %25, align 8
  %223 = icmp eq ptr null, %222
  br i1 %223, label %224, label %225

224:                                              ; preds = %215
  call void (ptr, ...) @cli_errmsg(ptr noundef @.str.15)
  store i32 20, ptr %11, align 4
  br label %239

225:                                              ; preds = %215
  %226 = load ptr, ptr %25, align 8
  store ptr %226, ptr %12, align 8
  %227 = load i64, ptr %13, align 8
  %228 = load i64, ptr %24, align 8
  %229 = sub i64 %227, %228
  store i64 %229, ptr %13, align 8
  br label %233

230:                                              ; preds = %207
  %231 = load i32, ptr %18, align 4
  %232 = add i32 %231, 1
  store i32 %232, ptr %18, align 4
  br label %166

233:                                              ; preds = %225, %166
  br label %234

234:                                              ; preds = %233, %123
  %235 = load ptr, ptr %12, align 8
  %236 = load ptr, ptr %9, align 8
  store ptr %235, ptr %236, align 8
  %237 = load i64, ptr %13, align 8
  %238 = load ptr, ptr %10, align 8
  store i64 %237, ptr %238, align 8
  store i32 0, ptr %11, align 4
  br label %239

239:                                              ; preds = %234, %224, %214, %195, %183, %164, %51, %38
  %240 = load ptr, ptr %14, align 8
  %241 = icmp ne ptr %240, inttoptr (i64 -1 to ptr)
  br i1 %241, label %242, label %245

242:                                              ; preds = %239
  %243 = load ptr, ptr %14, align 8
  %244 = call i32 @iconv_close(ptr noundef %243)
  br label %245

245:                                              ; preds = %242, %239
  %246 = load i32, ptr %11, align 4
  %247 = icmp ne i32 0, %246
  br i1 %247, label %248, label %254

248:                                              ; preds = %245
  %249 = load ptr, ptr %12, align 8
  %250 = icmp ne ptr null, %249
  br i1 %250, label %251, label %253

251:                                              ; preds = %248
  %252 = load ptr, ptr %12, align 8
  call void @free(ptr noundef %252) #11
  br label %253

253:                                              ; preds = %251, %248
  br label %254

254:                                              ; preds = %253, %245
  %255 = load i32, ptr %11, align 4
  ret i32 %255
}