; Function Attrs: nounwind uwtable
define noundef i32 @cli_codepage_to_utf8(ptr noundef %0, i64 noundef %1, i16 noundef zeroext %2, ptr noundef writeonly %3, ptr noundef writeonly %4) local_unnamed_addr #0 {
  %6 = alloca ptr, align 8
  %7 = alloca i64, align 8
  %8 = alloca i64, align 8
  %9 = alloca ptr, align 8
  %10 = icmp eq ptr %0, null
  %11 = icmp eq i64 %1, 0
  %or.cond = or i1 %10, %11
  %12 = icmp eq ptr %3, null
  %or.cond3 = or i1 %or.cond, %12
  %13 = icmp eq ptr %4, null
  %or.cond5 = or i1 %or.cond3, %13
  br i1 %or.cond5, label %14, label %15

14:                                               ; preds = %5
  tail call void (ptr, ...) @cli_dbgmsg(ptr noundef nonnull @.str.3) #16
  br label %.thread115

15:                                               ; preds = %5
  store ptr null, ptr %3, align 8
  store i64 0, ptr %4, align 8
  switch i16 %2, label %.preheader120 [
    i16 20127, label %16
    i16 -535, label %16
  ]

16:                                               ; preds = %15, %15
  %17 = add i64 %1, 1
  %18 = tail call ptr @cli_max_calloc(i64 noundef 1, i64 noundef %17) #16
  %19 = icmp eq ptr %18, null
  br i1 %19, label %20, label %21

20:                                               ; preds = %16
  tail call void (ptr, ...) @cli_errmsg(ptr noundef nonnull @.str.4) #16
  br label %.thread115

21:                                               ; preds = %16
  tail call void @llvm.memcpy.p0.p0.i64(ptr nonnull align 1 %18, ptr nonnull align 1 %0, i64 %1, i1 false)
  %22 = icmp eq i16 %2, -535
  br i1 %22, label %23, label %.loopexit

23:                                               ; preds = %21
  %24 = getelementptr inbounds i8, ptr %18, i64 %1
  %25 = getelementptr inbounds i8, ptr %24, i64 -1
  %26 = load i8, ptr %25, align 1
  %.not = icmp sgt i8 %26, -1
  br i1 %.not, label %.loopexit, label %.preheader122

.preheader122:                                    ; preds = %23
  %.not110143 = icmp eq ptr %25, %18
  br i1 %.not110143, label %._crit_edge, label %.lr.ph.preheader

.lr.ph.preheader:                                 ; preds = %.preheader122
  %27 = trunc i64 %1 to i32
  br label %.lr.ph

.lr.ph:                                           ; preds = %.lr.ph.preheader, %30
  %.084145 = phi i32 [ %32, %30 ], [ 1, %.lr.ph.preheader ]
  %.085144 = phi ptr [ %31, %30 ], [ %25, %.lr.ph.preheader ]
  %28 = load i8, ptr %.085144, align 1
  %29 = and i8 %28, -64
  %.not111 = icmp eq i8 %29, -128
  br i1 %.not111, label %30, label %._crit_edge

30:                                               ; preds = %.lr.ph
  %31 = getelementptr inbounds i8, ptr %.085144, i64 -1
  %32 = add nuw nsw i32 %.084145, 1
  %.not110 = icmp eq ptr %31, %18
  br i1 %.not110, label %._crit_edge, label %.lr.ph

._crit_edge:                                      ; preds = %30, %.lr.ph, %.preheader122
  %.085.lcssa = phi ptr [ %18, %.preheader122 ], [ %.085144, %.lr.ph ], [ %18, %30 ]
  %.084.lcssa = phi i32 [ 1, %.preheader122 ], [ %.084145, %.lr.ph ], [ %27, %30 ]
  %33 = load i8, ptr %.085.lcssa, align 1
  %34 = zext i8 %33 to i32
  br label %35

35:                                               ; preds = %._crit_edge, %39
  %.083150 = phi i32 [ 0, %._crit_edge ], [ %40, %39 ]
  %36 = lshr exact i32 128, %.083150
  %37 = and i32 %36, %34
  %38 = icmp eq i32 %37, 0
  br i1 %38, label %41, label %39

39:                                               ; preds = %35
  %40 = add nuw nsw i32 %.083150, 1
  %exitcond.not = icmp eq i32 %40, 8
  br i1 %exitcond.not, label %41, label %35

41:                                               ; preds = %35, %39
  %.083.lcssa = phi i32 [ %.083150, %35 ], [ 8, %39 ]
  %.not112 = icmp eq i32 %.084.lcssa, %.083.lcssa
  br i1 %.not112, label %.loopexit, label %.loopexit.loopexit155

.loopexit.loopexit155:                            ; preds = %41
  tail call void (ptr, ...) @cli_dbgmsg(ptr noundef nonnull @.str.5, i32 noundef %.084.lcssa, i32 noundef %.083.lcssa) #16
  %smin = tail call i32 @llvm.smin.i32(i32 %.084.lcssa, i32 1)
  %42 = sub i32 %.084.lcssa, %smin
  %43 = zext i32 %42 to i64
  %44 = add nuw nsw i64 %43, 1
  tail call void @llvm.memset.p0.i64(ptr noundef nonnull align 1 dereferenceable(1) %.085.lcssa, i8 0, i64 %44, i1 false)
  br label %.loopexit

.preheader120:                                    ; preds = %15, %48
  %indvars.iv = phi i64 [ %indvars.iv.next, %48 ], [ 0, %15 ]
  %45 = getelementptr inbounds [152 x %struct.codepage_entry], ptr @codepage_entries, i64 0, i64 %indvars.iv
  %46 = load i16, ptr %45, align 16
  %47 = icmp eq i16 %46, %2
  br i1 %47, label %50, label %48

48:                                               ; preds = %.preheader120
  %49 = icmp ugt i16 %46, %2
  %indvars.iv.next = add nuw nsw i64 %indvars.iv, 1
  %exitcond175.not = icmp eq i64 %indvars.iv.next, 152
  %or.cond205 = select i1 %49, i1 true, i1 %exitcond175.not
  br i1 %or.cond205, label %.thread, label %.preheader120

50:                                               ; preds = %.preheader120
  %51 = getelementptr inbounds i8, ptr %45, i64 8
  %52 = load ptr, ptr %51, align 8
  %53 = icmp eq ptr %52, null
  br i1 %53, label %.thread, label %.preheader

.preheader:                                       ; preds = %50
  %54 = shl i64 %1, 1
  br label %55

.thread:                                          ; preds = %48, %50
  tail call void (ptr, ...) @cli_dbgmsg(ptr noundef nonnull @.str.6) #16
  br label %.thread115

55:                                               ; preds = %.preheader, %75
  %indvars.iv176 = phi i64 [ 1, %.preheader ], [ %indvars.iv.next177, %75 ]
  store ptr %0, ptr %6, align 8
  store i64 %1, ptr %7, align 8
  store ptr null, ptr %9, align 8
  %56 = mul i64 %54, %indvars.iv176
  store i64 %56, ptr %8, align 8
  %57 = or disjoint i64 %56, 1
  %58 = call ptr @cli_max_calloc(i64 noundef 1, i64 noundef %57) #16
  %59 = icmp eq ptr %58, null
  br i1 %59, label %60, label %61

60:                                               ; preds = %55
  call void (ptr, ...) @cli_errmsg(ptr noundef nonnull @.str.7) #16
  br label %.thread115

61:                                               ; preds = %55
  store ptr %58, ptr %9, align 8
  %62 = call ptr @iconv_open(ptr noundef nonnull @.str.8, ptr noundef nonnull %52) #16
  %63 = icmp eq ptr %62, inttoptr (i64 -1 to ptr)
  br i1 %63, label %64, label %68

64:                                               ; preds = %61
  %65 = call ptr @iconv_open(ptr noundef nonnull @.str.9, ptr noundef nonnull %52) #16
  %66 = icmp eq ptr %65, inttoptr (i64 -1 to ptr)
  br i1 %66, label %67, label %68

67:                                               ; preds = %64
  call void (ptr, ...) @cli_warnmsg(ptr noundef nonnull @.str.10) #16
  br label %88

68:                                               ; preds = %64, %61
  %.188 = phi ptr [ %65, %64 ], [ %62, %61 ]
  %69 = call i64 @iconv(ptr noundef %.188, ptr noundef nonnull %6, ptr noundef nonnull %7, ptr noundef nonnull %9, ptr noundef nonnull %8) #16
  %70 = call i32 @iconv_close(ptr noundef %.188) #16
  %71 = icmp eq i64 %69, -1
  br i1 %71, label %72, label %79

72:                                               ; preds = %68
  %73 = tail call ptr @__errno_location() #18
  %74 = load i32, ptr %73, align 4
  switch i32 %74, label %78 [
    i32 7, label %75
    i32 84, label %76
    i32 22, label %77
  ]

75:                                               ; preds = %72
  call void (ptr, ...) @cli_warnmsg(ptr noundef nonnull @.str.11) #16
  call void @free(ptr noundef nonnull %58) #16
  %indvars.iv.next177 = add nuw nsw i64 %indvars.iv176, 1
  %exitcond179.not = icmp eq i64 %indvars.iv.next177, 4
  br i1 %exitcond179.not, label %.loopexit, label %55

76:                                               ; preds = %72
  call void (ptr, ...) @cli_warnmsg(ptr noundef nonnull @.str.12) #16
  br label %88

77:                                               ; preds = %72
  call void (ptr, ...) @cli_dbgmsg(ptr noundef nonnull @.str.13) #16
  br label %88

78:                                               ; preds = %72
  call void (ptr, ...) @cli_warnmsg(ptr noundef nonnull @.str.14, i32 noundef %74) #16
  br label %88

79:                                               ; preds = %68
  %80 = load i64, ptr %8, align 8
  %81 = sub i64 %57, %80
  %82 = call ptr @cli_max_realloc(ptr noundef nonnull %58, i64 noundef %81) #16
  %83 = icmp eq ptr %82, null
  br i1 %83, label %84, label %85

84:                                               ; preds = %79
  call void (ptr, ...) @cli_errmsg(ptr noundef nonnull @.str.15) #16
  br label %88

85:                                               ; preds = %79
  %86 = load i64, ptr %8, align 8
  %87 = sub i64 %56, %86
  br label %.loopexit

.loopexit:                                        ; preds = %75, %.loopexit.loopexit155, %85, %21, %23, %41
  %.192 = phi ptr [ %82, %85 ], [ %18, %41 ], [ %18, %23 ], [ %18, %21 ], [ %18, %.loopexit.loopexit155 ], [ null, %75 ]
  %.190 = phi i64 [ %87, %85 ], [ %1, %41 ], [ %1, %23 ], [ %1, %21 ], [ %1, %.loopexit.loopexit155 ], [ %56, %75 ]
  store ptr %.192, ptr %3, align 8
  store i64 %.190, ptr %4, align 8
  br label %.thread115

88:                                               ; preds = %76, %77, %78, %84, %67
  %.094 = phi i32 [ 22, %67 ], [ 20, %84 ], [ 27, %78 ], [ 27, %77 ], [ 27, %76 ]
  call void @free(ptr noundef nonnull %58) #16
  br label %.thread115

.thread115:                                       ; preds = %20, %60, %.thread, %14, %.loopexit, %88
  %.094119 = phi i32 [ %.094, %88 ], [ 20, %20 ], [ 0, %.loopexit ], [ 20, %60 ], [ 22, %.thread ], [ 3, %14 ]
  ret i32 %.094119
}